target datalayout = "e-m:e-p270:32:32-p271:32:32-p272:64:64-i64:64-i128:128-f80:128-n8:16:32:64-S128"
target triple = "x86_64-pc-linux-gnu"

%struct.lua_State = type { %struct.GCRef, i8, i8, i8, i8, %struct.MRef, %struct.GCRef, ptr, ptr, %struct.MRef, %struct.MRef, %struct.GCRef, %struct.GCRef, ptr, i32 }
%struct.MRef = type { i64 }
%struct.GCRef = type { i64 }
%union.TValue = type { i64 }
%struct.global_State = type { ptr, ptr, %struct.GCState, %struct.GCstr, i8, i8, i8, i8, %struct.StrInternState, i32, %struct.GCRef, %struct.SBuf, %union.TValue, %union.TValue, %struct.Node, %union.TValue, %struct.GCupval, i32, i32, ptr, ptr, ptr, i32, i32, %struct.GCRef, %struct.MRef, %struct.MRef, %struct.PRNGState, [39 x %struct.GCRef] }
%struct.GCState = type { i64, i64, i8, i8, i8, i8, i32, %struct.GCRef, %struct.MRef, %struct.GCRef, %struct.GCRef, %struct.GCRef, %struct.GCRef, i64, i64, i32, i32, %struct.MRef }
%struct.GCstr = type { %struct.GCRef, i8, i8, i8, i8, i32, i32, i32 }
%struct.StrInternState = type { ptr, i32, i32, i32, i8, i8, i8, i8, i64 }
%struct.SBuf = type { ptr, ptr, ptr, %struct.MRef }
%struct.Node = type { %union.TValue, %union.TValue, %struct.MRef }
%struct.GCupval = type { %struct.GCRef, i8, i8, i8, i8, %union.anon, %struct.MRef, i32 }
%union.anon = type { %struct.anon.1 }
%struct.anon.1 = type { %struct.GCRef, %struct.GCRef }
%struct.PRNGState = type { [4 x i64] }
%struct.GCudata = type { %struct.GCRef, i8, i8, i8, i8, %struct.GCRef, i32, %struct.GCRef, i32 }
%struct.IOFileUD = type { ptr, i32 }

@lj_lib_init_io_method = internal constant [73 x i8] c"`9\0A\05close\04read\05write\05flush\04seek\07setvbuf\05lines\04__gc\0A__tostring\FC\01\C7__index\FA\FF", align 16
@.str = private unnamed_addr constant [6 x i8] c"FILE*\00", align 1
@.str.1 = private unnamed_addr constant [3 x i8] c"io\00", align 1
@lj_lib_init_io = internal constant [74 x i8] c"i9\0C\FC\02\C0\FA\04open\05popen\07tmpfile\05close\04read\05write\05flush\05input\06output\05lines\04type\FF", align 16
@lj_lib_cf_io = internal constant [11 x ptr] [ptr @lj_cf_io_open, ptr @lj_cf_io_popen, ptr @lj_cf_io_tmpfile, ptr @lj_cf_io_close, ptr @lj_cf_io_read, ptr @lj_cf_io_write, ptr @lj_cf_io_flush, ptr @lj_cf_io_input, ptr @lj_cf_io_output, ptr @lj_cf_io_lines, ptr @lj_cf_io_type], align 16
@stdin = external global ptr, align 8
@.str.2 = private unnamed_addr constant [6 x i8] c"stdin\00", align 1
@stdout = external global ptr, align 8
@.str.3 = private unnamed_addr constant [7 x i8] c"stdout\00", align 1
@stderr = external global ptr, align 8
@.str.4 = private unnamed_addr constant [7 x i8] c"stderr\00", align 1
@.str.13 = private unnamed_addr constant [23 x i8] c"copy of dead GC object\00", align 1

; Function Attrs: alwaysinline nounwind uwtable
define internal void @checklivetv(ptr noundef %0, ptr noundef %1, ptr noundef %2) #2 {
  %4 = alloca ptr, align 8
  %5 = alloca ptr, align 8
  %6 = alloca ptr, align 8
  store ptr %0, ptr %4, align 8, !tbaa !4
  store ptr %1, ptr %5, align 8, !tbaa !20
  store ptr %2, ptr %6, align 8, !tbaa !23
  ret void
}

; Function Attrs: nounwind uwtable
define internal ptr @io_std_new(ptr noundef %0, ptr noundef %1, ptr noundef %2) #0 {
  %4 = alloca ptr, align 8
  %5 = alloca ptr, align 8
  %6 = alloca ptr, align 8
  %7 = alloca ptr, align 8
  %8 = alloca ptr, align 8
  store ptr %0, ptr %4, align 8, !tbaa !4
  store ptr %1, ptr %5, align 8, !tbaa !16
  store ptr %2, ptr %6, align 8, !tbaa !23
  call void @llvm.lifetime.start.p0(i64 8, ptr %7) #10
  %9 = load ptr, ptr %4, align 8, !tbaa !4
  %10 = call ptr @lua_newuserdata(ptr noundef %9, i64 noundef 16)
  store ptr %10, ptr %7, align 8, !tbaa !25
  call void @llvm.lifetime.start.p0(i64 8, ptr %8) #10
  %11 = load ptr, ptr %4, align 8, !tbaa !4
  %12 = getelementptr inbounds nuw %struct.lua_State, ptr %11, i32 0, i32 8
  %13 = load ptr, ptr %12, align 8, !tbaa !9
  %14 = getelementptr inbounds %union.TValue, ptr %13, i64 -1
  %15 = getelementptr inbounds nuw %struct.GCRef, ptr %14, i32 0, i32 0
  %16 = load i64, ptr %15, align 8, !tbaa !22
  %17 = and i64 %16, 140737488355327
  %18 = inttoptr i64 %17 to ptr
  store ptr %18, ptr %8, align 8, !tbaa !27
  %19 = load ptr, ptr %8, align 8, !tbaa !27
  %20 = getelementptr inbounds nuw %struct.GCudata, ptr %19, i32 0, i32 3
  store i8 1, ptr %20, align 2, !tbaa !29
  %21 = load ptr, ptr %4, align 8, !tbaa !4
  %22 = getelementptr inbounds nuw %struct.lua_State, ptr %21, i32 0, i32 8
  %23 = load ptr, ptr %22, align 8, !tbaa !9
  %24 = getelementptr inbounds %union.TValue, ptr %23, i64 -3
  %25 = getelementptr inbounds nuw %struct.GCRef, ptr %24, i32 0, i32 0
  %26 = load i64, ptr %25, align 8, !tbaa !22
  %27 = and i64 %26, 140737488355327
  %28 = inttoptr i64 %27 to ptr
  %29 = ptrtoint ptr %28 to i64
  %30 = load ptr, ptr %8, align 8, !tbaa !27
  %31 = getelementptr inbounds nuw %struct.GCudata, ptr %30, i32 0, i32 7
  %32 = getelementptr inbounds nuw %struct.GCRef, ptr %31, i32 0, i32 0
  store i64 %29, ptr %32, align 8, !tbaa !31
  %33 = load ptr, ptr %5, align 8, !tbaa !16
  %34 = load ptr, ptr %7, align 8, !tbaa !25
  %35 = getelementptr inbounds nuw %struct.IOFileUD, ptr %34, i32 0, i32 0
  store ptr %33, ptr %35, align 8, !tbaa !32
  %36 = load ptr, ptr %7, align 8, !tbaa !25
  %37 = getelementptr inbounds nuw %struct.IOFileUD, ptr %36, i32 0, i32 1
  store i32 2, ptr %37, align 8, !tbaa !34
  %38 = load ptr, ptr %4, align 8, !tbaa !4
  %39 = load ptr, ptr %6, align 8, !tbaa !23
  call void @lua_setfield(ptr noundef %38, i32 noundef -2, ptr noundef %39)
  %40 = load ptr, ptr %8, align 8, !tbaa !27
  call void @llvm.lifetime.end.p0(i64 8, ptr %8) #10
  call void @llvm.lifetime.end.p0(i64 8, ptr %7) #10
  ret ptr %40
}

; Function Attrs: alwaysinline nounwind uwtable
define internal void @copyTV(ptr noundef %0, ptr noundef %1, ptr noundef %2) #2 {
  %4 = alloca ptr, align 8
  %5 = alloca ptr, align 8
  %6 = alloca ptr, align 8
  store ptr %0, ptr %4, align 8, !tbaa !4
  store ptr %1, ptr %5, align 8, !tbaa !20
  store ptr %2, ptr %6, align 8, !tbaa !20
  %7 = load ptr, ptr %5, align 8, !tbaa !20
  %8 = load ptr, ptr %6, align 8, !tbaa !20
  call void @llvm.memcpy.p0.p0.i64(ptr align 8 %7, ptr align 8 %8, i64 8, i1 false), !tbaa.struct !21
  %9 = load ptr, ptr %4, align 8, !tbaa !4
  %10 = load ptr, ptr %5, align 8, !tbaa !20
  call void @checklivetv(ptr noundef %9, ptr noundef %10, ptr noundef @.str.13)
  ret void
}

; Function Attrs: nounwind uwtable
define dso_local i32 @luaopen_io(ptr noundef %0) #0 {
  %2 = alloca ptr, align 8
  store ptr %0, ptr %2, align 8, !tbaa !4
  %3 = load ptr, ptr %2, align 8, !tbaa !4
  call void @lj_lib_register(ptr noundef %3, ptr noundef null, ptr noundef @lj_lib_init_io_method, ptr noundef @lj_lib_cf_io_method)
  %4 = load ptr, ptr %2, align 8, !tbaa !4
  %5 = load ptr, ptr %2, align 8, !tbaa !4
  %6 = getelementptr inbounds nuw %struct.lua_State, ptr %5, i32 0, i32 8
  %7 = load ptr, ptr %6, align 8, !tbaa !9
  %8 = load ptr, ptr %2, align 8, !tbaa !4
  %9 = getelementptr inbounds nuw %struct.lua_State, ptr %8, i32 0, i32 8
  %10 = load ptr, ptr %9, align 8, !tbaa !9
  %11 = getelementptr inbounds %union.TValue, ptr %10, i64 -1
  call void @copyTV(ptr noundef %4, ptr noundef %7, ptr noundef %11)
  %12 = load ptr, ptr %2, align 8, !tbaa !4
  %13 = getelementptr inbounds nuw %struct.lua_State, ptr %12, i32 0, i32 8
  %14 = load ptr, ptr %13, align 8, !tbaa !9
  %15 = getelementptr inbounds nuw %union.TValue, ptr %14, i32 1
  store ptr %15, ptr %13, align 8, !tbaa !9
  %16 = load ptr, ptr %2, align 8, !tbaa !4
  call void @lua_setfield(ptr noundef %16, i32 noundef -10000, ptr noundef @.str)
  %17 = load ptr, ptr %2, align 8, !tbaa !4
  call void @lj_lib_register(ptr noundef %17, ptr noundef @.str.1, ptr noundef @lj_lib_init_io, ptr noundef @lj_lib_cf_io)
  %18 = load ptr, ptr %2, align 8, !tbaa !4
  %19 = load ptr, ptr @stdin, align 8, !tbaa !16
  %20 = call ptr @io_std_new(ptr noundef %18, ptr noundef %19, ptr noundef @.str.2)
  %21 = ptrtoint ptr %20 to i64
  %22 = load ptr, ptr %2, align 8, !tbaa !4
  %23 = getelementptr inbounds nuw %struct.lua_State, ptr %22, i32 0, i32 5
  %24 = getelementptr inbounds nuw %struct.MRef, ptr %23, i32 0, i32 0
  %25 = load i64, ptr %24, align 8, !tbaa !18
  %26 = inttoptr i64 %25 to ptr
  %27 = getelementptr inbounds nuw %struct.global_State, ptr %26, i32 0, i32 28
  %28 = getelementptr inbounds [39 x %struct.GCRef], ptr %27, i64 0, i64 36
  %29 = getelementptr inbounds nuw %struct.GCRef, ptr %28, i32 0, i32 0
  store i64 %21, ptr %29, align 8, !tbaa !19
  %30 = load ptr, ptr %2, align 8, !tbaa !4
  %31 = load ptr, ptr @stdout, align 8, !tbaa !16
  %32 = call ptr @io_std_new(ptr noundef %30, ptr noundef %31, ptr noundef @.str.3)
  %33 = ptrtoint ptr %32 to i64
  %34 = load ptr, ptr %2, align 8, !tbaa !4
  %35 = getelementptr inbounds nuw %struct.lua_State, ptr %34, i32 0, i32 5
  %36 = getelementptr inbounds nuw %struct.MRef, ptr %35, i32 0, i32 0
  %37 = load i64, ptr %36, align 8, !tbaa !18
  %38 = inttoptr i64 %37 to ptr
  %39 = getelementptr inbounds nuw %struct.global_State, ptr %38, i32 0, i32 28
  %40 = getelementptr inbounds [39 x %struct.GCRef], ptr %39, i64 0, i64 37
  %41 = getelementptr inbounds nuw %struct.GCRef, ptr %40, i32 0, i32 0
  store i64 %33, ptr %41, align 8, !tbaa !19
  %42 = load ptr, ptr %2, align 8, !tbaa !4
  %43 = load ptr, ptr @stderr, align 8, !tbaa !16
  %44 = call ptr @io_std_new(ptr noundef %42, ptr noundef %43, ptr noundef @.str.4)
  ret i32 1
}