; Function Attrs: nounwind uwtable
define dso_local noundef i32 @luaopen_io(ptr noundef %0) local_unnamed_addr #0 {
  tail call void @lj_lib_register(ptr noundef %0, ptr noundef null, ptr noundef nonnull @lj_lib_init_io_method, ptr noundef nonnull @lj_lib_cf_io_method) #10
  %2 = getelementptr inbounds nuw i8, ptr %0, i64 40
  %3 = load ptr, ptr %2, align 8, !tbaa !4
  %4 = getelementptr inbounds i8, ptr %3, i64 -8
  %5 = load i64, ptr %4, align 8, !tbaa !14
  store i64 %5, ptr %3, align 8, !tbaa !14
  %6 = load ptr, ptr %2, align 8, !tbaa !4
  %7 = getelementptr inbounds nuw i8, ptr %6, i64 8
  store ptr %7, ptr %2, align 8, !tbaa !4
  tail call void @lua_setfield(ptr noundef %0, i32 noundef -10000, ptr noundef nonnull @.str) #10
  tail call void @lj_lib_register(ptr noundef %0, ptr noundef nonnull @.str.1, ptr noundef nonnull @lj_lib_init_io, ptr noundef nonnull @lj_lib_cf_io) #10
  %8 = load ptr, ptr @stdin, align 8, !tbaa !15
  %9 = tail call ptr @lua_newuserdata(ptr noundef %0, i64 noundef 16) #10
  %10 = load ptr, ptr %2, align 8, !tbaa !4
  %11 = getelementptr inbounds i8, ptr %10, i64 -8
  %12 = load i64, ptr %11, align 8, !tbaa !14
  %13 = and i64 %12, 140737488355327
  %14 = inttoptr i64 %13 to ptr
  %15 = getelementptr inbounds nuw i8, ptr %14, i64 10
  store i8 1, ptr %15, align 2, !tbaa !17
  %16 = getelementptr inbounds i8, ptr %10, i64 -24
  %17 = load i64, ptr %16, align 8, !tbaa !14
  %18 = and i64 %17, 140737488355327
  %19 = getelementptr inbounds nuw i8, ptr %14, i64 32
  store i64 %18, ptr %19, align 8, !tbaa !19
  store ptr %8, ptr %9, align 8, !tbaa !20
  %20 = getelementptr inbounds nuw i8, ptr %9, i64 8
  store i32 2, ptr %20, align 8, !tbaa !22
  tail call void @lua_setfield(ptr noundef %0, i32 noundef -2, ptr noundef nonnull @.str.2) #10
  %21 = getelementptr inbounds nuw i8, ptr %0, i64 16
  %22 = load i64, ptr %21, align 8, !tbaa !23
  %23 = inttoptr i64 %22 to ptr
  %24 = getelementptr inbounds nuw i8, ptr %23, i64 712
  store i64 %13, ptr %24, align 8, !tbaa !24
  %25 = load ptr, ptr @stdout, align 8, !tbaa !15
  %26 = tail call ptr @lua_newuserdata(ptr noundef %0, i64 noundef 16) #10
  %27 = load ptr, ptr %2, align 8, !tbaa !4
  %28 = getelementptr inbounds i8, ptr %27, i64 -8
  %29 = load i64, ptr %28, align 8, !tbaa !14
  %30 = and i64 %29, 140737488355327
  %31 = inttoptr i64 %30 to ptr
  %32 = getelementptr inbounds nuw i8, ptr %31, i64 10
  store i8 1, ptr %32, align 2, !tbaa !17
  %33 = getelementptr inbounds i8, ptr %27, i64 -24
  %34 = load i64, ptr %33, align 8, !tbaa !14
  %35 = and i64 %34, 140737488355327
  %36 = getelementptr inbounds nuw i8, ptr %31, i64 32
  store i64 %35, ptr %36, align 8, !tbaa !19
  store ptr %25, ptr %26, align 8, !tbaa !20
  %37 = getelementptr inbounds nuw i8, ptr %26, i64 8
  store i32 2, ptr %37, align 8, !tbaa !22
  tail call void @lua_setfield(ptr noundef %0, i32 noundef -2, ptr noundef nonnull @.str.3) #10
  %38 = load i64, ptr %21, align 8, !tbaa !23
  %39 = inttoptr i64 %38 to ptr
  %40 = getelementptr inbounds nuw i8, ptr %39, i64 720
  store i64 %30, ptr %40, align 8, !tbaa !24
  %41 = load ptr, ptr @stderr, align 8, !tbaa !15
  %42 = tail call ptr @lua_newuserdata(ptr noundef %0, i64 noundef 16) #10
  %43 = load ptr, ptr %2, align 8, !tbaa !4
  %44 = getelementptr inbounds i8, ptr %43, i64 -8
  %45 = load i64, ptr %44, align 8, !tbaa !14
  %46 = and i64 %45, 140737488355327
  %47 = inttoptr i64 %46 to ptr
  %48 = getelementptr inbounds nuw i8, ptr %47, i64 10
  store i8 1, ptr %48, align 2, !tbaa !17
  %49 = getelementptr inbounds i8, ptr %43, i64 -24
  %50 = load i64, ptr %49, align 8, !tbaa !14
  %51 = and i64 %50, 140737488355327
  %52 = getelementptr inbounds nuw i8, ptr %47, i64 32
  store i64 %51, ptr %52, align 8, !tbaa !19
  store ptr %41, ptr %42, align 8, !tbaa !20
  %53 = getelementptr inbounds nuw i8, ptr %42, i64 8
  store i32 2, ptr %53, align 8, !tbaa !22
  tail call void @lua_setfield(ptr noundef %0, i32 noundef -2, ptr noundef nonnull @.str.4) #10
  ret i32 1
}